target datalayout = "e-m:e-p270:32:32-p271:32:32-p272:64:64-i64:64-i128:128-f80:128-n8:16:32:64-S128"
target triple = "x86_64-unknown-linux-gnu"

%struct.redisConfig = type { ptr, ptr }

; Function Attrs: nounwind uwtable
define internal void @freeRedisConfig(ptr noundef %cfg) #0 {
entry:
  %cfg.addr = alloca ptr, align 8
  store ptr %cfg, ptr %cfg.addr, align 8
  %0 = load ptr, ptr %cfg.addr, align 8
  %save = getelementptr inbounds %struct.redisConfig, ptr %0, i32 0, i32 0
  %1 = load ptr, ptr %save, align 8
  %tobool = icmp ne ptr %1, null
  br i1 %tobool, label %if.then, label %if.end

if.then:                                          ; preds = %entry
  %2 = load ptr, ptr %cfg.addr, align 8
  %save1 = getelementptr inbounds %struct.redisConfig, ptr %2, i32 0, i32 0
  %3 = load ptr, ptr %save1, align 8
  call void @hi_sdsfree(ptr noundef %3)
  br label %if.end

if.end:                                           ; preds = %if.then, %entry
  %4 = load ptr, ptr %cfg.addr, align 8
  %appendonly = getelementptr inbounds %struct.redisConfig, ptr %4, i32 0, i32 1
  %5 = load ptr, ptr %appendonly, align 8
  %tobool2 = icmp ne ptr %5, null
  br i1 %tobool2, label %if.then3, label %if.end5

if.then3:                                         ; preds = %if.end
  %6 = load ptr, ptr %cfg.addr, align 8
  %appendonly4 = getelementptr inbounds %struct.redisConfig, ptr %6, i32 0, i32 1
  %7 = load ptr, ptr %appendonly4, align 8
  call void @hi_sdsfree(ptr noundef %7)
  br label %if.end5

if.end5:                                          ; preds = %if.then3, %if.end
  %8 = load ptr, ptr %cfg.addr, align 8
  call void @zfree(ptr noundef %8)
  ret void
}