; Function Attrs: nounwind uwtable
define internal fastcc void @freeRedisConfig(ptr noundef %cfg) unnamed_addr #0 {
entry:
  %0 = load ptr, ptr %cfg, align 8
  %tobool.not = icmp eq ptr %0, null
  br i1 %tobool.not, label %if.end, label %if.then

if.then:                                          ; preds = %entry
  tail call void @hi_sdsfree(ptr noundef nonnull %0) #22
  br label %if.end

if.end:                                           ; preds = %if.then, %entry
  %appendonly = getelementptr inbounds i8, ptr %cfg, i64 8
  %1 = load ptr, ptr %appendonly, align 8
  %tobool2.not = icmp eq ptr %1, null
  br i1 %tobool2.not, label %if.end5, label %if.then3

if.then3:                                         ; preds = %if.end
  tail call void @hi_sdsfree(ptr noundef nonnull %1) #22
  br label %if.end5

if.end5:                                          ; preds = %if.then3, %if.end
  tail call void @zfree(ptr noundef nonnull %cfg) #22
  ret void
}